target datalayout = "e-m:e-p270:32:32-p271:32:32-p272:64:64-i64:64-i128:128-f80:128-n8:16:32:64-S128"
target triple = "x86_64-pc-linux-gnu"

%struct._value_string_ext = type { ptr, i32, i32, ptr, ptr }
%struct.scsistat_tap_data = type { i8, ptr, ptr, ptr }

@.str = private unnamed_addr constant [6 x i8] c",%d%n\00", align 1
@.str.1 = private unnamed_addr constant [11 x i8] c"SBC (disk)\00", align 1
@scsi_sbc_vals_ext = external global %struct._value_string_ext, align 8
@.str.2 = private unnamed_addr constant [16 x i8] c"scsi_sbc.opcode\00", align 1
@.str.3 = private unnamed_addr constant [11 x i8] c"SSC (tape)\00", align 1
@scsi_ssc_vals_ext = external global %struct._value_string_ext, align 8
@.str.4 = private unnamed_addr constant [16 x i8] c"scsi_ssc.opcode\00", align 1
@.str.5 = private unnamed_addr constant [13 x i8] c"MMC (cd/dvd)\00", align 1
@scsi_mmc_vals_ext = external global %struct._value_string_ext, align 8
@.str.6 = private unnamed_addr constant [16 x i8] c"scsi_mmc.opcode\00", align 1
@.str.7 = private unnamed_addr constant [17 x i8] c"SMC (tape robot)\00", align 1
@scsi_smc_vals_ext = external global %struct._value_string_ext, align 8
@.str.8 = private unnamed_addr constant [16 x i8] c"scsi_smc.opcode\00", align 1
@.str.9 = private unnamed_addr constant [19 x i8] c"OSD (object based)\00", align 1
@scsi_osd_vals_ext = external global %struct._value_string_ext, align 8
@.str.10 = private unnamed_addr constant [16 x i8] c"scsi_osd.opcode\00", align 1
@.str.11 = private unnamed_addr constant [20 x i8] c"<cmdset>[,<filter>]\00", align 1

; Function Attrs: nounwind uwtable
define i32 @scsistat_param(ptr noundef %0, ptr noundef %1, ptr noundef %2) #0 {
  %4 = alloca ptr, align 8
  %5 = alloca ptr, align 8
  %6 = alloca ptr, align 8
  %7 = alloca i32, align 4
  %8 = alloca i32, align 4
  %9 = alloca ptr, align 8
  store ptr %0, ptr %4, align 8
  store ptr %1, ptr %5, align 8
  store ptr %2, ptr %6, align 8
  store i32 0, ptr %7, align 4
  %10 = load ptr, ptr %5, align 8
  %11 = call i32 (ptr, ptr, ...) @__isoc99_sscanf(ptr noundef %10, ptr noundef @.str, ptr noundef %8, ptr noundef %7) #7
  %12 = icmp eq i32 %11, 1
  br i1 %12, label %13, label %58

13:                                               ; preds = %3
  %14 = call noalias ptr @g_malloc0_n(i64 noundef 1, i64 noundef 32) #8
  store ptr %14, ptr %9, align 8
  %15 = load i32, ptr %8, align 4
  %16 = trunc i32 %15 to i8
  %17 = load ptr, ptr %9, align 8
  %18 = getelementptr inbounds %struct.scsistat_tap_data, ptr %17, i32 0, i32 0
  store i8 %16, ptr %18, align 8
  %19 = load i32, ptr %8, align 4
  switch i32 %19, label %55 [
    i32 0, label %20
    i32 1, label %27
    i32 5, label %34
    i32 8, label %41
    i32 17, label %48
  ]

20:                                               ; preds = %13
  %21 = load ptr, ptr %9, align 8
  %22 = getelementptr inbounds %struct.scsistat_tap_data, ptr %21, i32 0, i32 1
  store ptr @.str.1, ptr %22, align 8
  %23 = load ptr, ptr %9, align 8
  %24 = getelementptr inbounds %struct.scsistat_tap_data, ptr %23, i32 0, i32 2
  store ptr @scsi_sbc_vals_ext, ptr %24, align 8
  %25 = load ptr, ptr %9, align 8
  %26 = getelementptr inbounds %struct.scsistat_tap_data, ptr %25, i32 0, i32 3
  store ptr @.str.2, ptr %26, align 8
  br label %55

27:                                               ; preds = %13
  %28 = load ptr, ptr %9, align 8
  %29 = getelementptr inbounds %struct.scsistat_tap_data, ptr %28, i32 0, i32 1
  store ptr @.str.3, ptr %29, align 8
  %30 = load ptr, ptr %9, align 8
  %31 = getelementptr inbounds %struct.scsistat_tap_data, ptr %30, i32 0, i32 2
  store ptr @scsi_ssc_vals_ext, ptr %31, align 8
  %32 = load ptr, ptr %9, align 8
  %33 = getelementptr inbounds %struct.scsistat_tap_data, ptr %32, i32 0, i32 3
  store ptr @.str.4, ptr %33, align 8
  br label %55

34:                                               ; preds = %13
  %35 = load ptr, ptr %9, align 8
  %36 = getelementptr inbounds %struct.scsistat_tap_data, ptr %35, i32 0, i32 1
  store ptr @.str.5, ptr %36, align 8
  %37 = load ptr, ptr %9, align 8
  %38 = getelementptr inbounds %struct.scsistat_tap_data, ptr %37, i32 0, i32 2
  store ptr @scsi_mmc_vals_ext, ptr %38, align 8
  %39 = load ptr, ptr %9, align 8
  %40 = getelementptr inbounds %struct.scsistat_tap_data, ptr %39, i32 0, i32 3
  store ptr @.str.6, ptr %40, align 8
  br label %55

41:                                               ; preds = %13
  %42 = load ptr, ptr %9, align 8
  %43 = getelementptr inbounds %struct.scsistat_tap_data, ptr %42, i32 0, i32 1
  store ptr @.str.7, ptr %43, align 8
  %44 = load ptr, ptr %9, align 8
  %45 = getelementptr inbounds %struct.scsistat_tap_data, ptr %44, i32 0, i32 2
  store ptr @scsi_smc_vals_ext, ptr %45, align 8
  %46 = load ptr, ptr %9, align 8
  %47 = getelementptr inbounds %struct.scsistat_tap_data, ptr %46, i32 0, i32 3
  store ptr @.str.8, ptr %47, align 8
  br label %55

48:                                               ; preds = %13
  %49 = load ptr, ptr %9, align 8
  %50 = getelementptr inbounds %struct.scsistat_tap_data, ptr %49, i32 0, i32 1
  store ptr @.str.9, ptr %50, align 8
  %51 = load ptr, ptr %9, align 8
  %52 = getelementptr inbounds %struct.scsistat_tap_data, ptr %51, i32 0, i32 2
  store ptr @scsi_osd_vals_ext, ptr %52, align 8
  %53 = load ptr, ptr %9, align 8
  %54 = getelementptr inbounds %struct.scsistat_tap_data, ptr %53, i32 0, i32 3
  store ptr @.str.10, ptr %54, align 8
  br label %55

55:                                               ; preds = %48, %41, %34, %27, %20, %13
  %56 = load ptr, ptr %4, align 8
  %57 = load ptr, ptr %9, align 8
  call void @set_srt_table_param_data(ptr noundef %56, ptr noundef %57)
  br label %61

58:                                               ; preds = %3
  %59 = call noalias ptr @g_strdup(ptr noundef @.str.11)
  %60 = load ptr, ptr %6, align 8
  store ptr %59, ptr %60, align 8
  br label %61

61:                                               ; preds = %58, %55
  %62 = load i32, ptr %7, align 4
  ret i32 %62
}