; Function Attrs: nounwind uwtable
define i32 @scsistat_param(ptr noundef %0, ptr noundef readonly captures(none) %1, ptr noundef writeonly captures(none) %2) #0 {
  %4 = alloca i32, align 4
  %5 = alloca i32, align 4
  store i32 0, ptr %4, align 4
  %6 = call i32 (ptr, ptr, ...) @__isoc99_sscanf(ptr noundef %1, ptr noundef nonnull @.str, ptr noundef nonnull %5, ptr noundef nonnull %4) #10
  %7 = icmp eq i32 %6, 1
  br i1 %7, label %8, label %20

8:                                                ; preds = %3
  %9 = call noalias dereferenceable_or_null(32) ptr @g_malloc0_n(i64 noundef 1, i64 noundef 32) #11
  %10 = load i32, ptr %5, align 4
  %11 = trunc i32 %10 to i8
  store i8 %11, ptr %9, align 8
  switch i32 %10, label %19 [
    i32 0, label %.sink.split
    i32 1, label %12
    i32 5, label %13
    i32 8, label %14
    i32 17, label %15
  ]

12:                                               ; preds = %8
  br label %.sink.split

13:                                               ; preds = %8
  br label %.sink.split

14:                                               ; preds = %8
  br label %.sink.split

15:                                               ; preds = %8
  br label %.sink.split

.sink.split:                                      ; preds = %8, %12, %13, %14, %15
  %.str.9.sink = phi ptr [ @.str.9, %15 ], [ @.str.7, %14 ], [ @.str.5, %13 ], [ @.str.3, %12 ], [ @.str.1, %8 ]
  %scsi_osd_vals_ext.sink = phi ptr [ @scsi_osd_vals_ext, %15 ], [ @scsi_smc_vals_ext, %14 ], [ @scsi_mmc_vals_ext, %13 ], [ @scsi_ssc_vals_ext, %12 ], [ @scsi_sbc_vals_ext, %8 ]
  %.str.10.sink = phi ptr [ @.str.10, %15 ], [ @.str.8, %14 ], [ @.str.6, %13 ], [ @.str.4, %12 ], [ @.str.2, %8 ]
  %16 = getelementptr inbounds nuw i8, ptr %9, i64 8
  store ptr %.str.9.sink, ptr %16, align 8
  %17 = getelementptr inbounds nuw i8, ptr %9, i64 16
  store ptr %scsi_osd_vals_ext.sink, ptr %17, align 8
  %18 = getelementptr inbounds nuw i8, ptr %9, i64 24
  store ptr %.str.10.sink, ptr %18, align 8
  br label %19

19:                                               ; preds = %.sink.split, %8
  call void @set_srt_table_param_data(ptr noundef %0, ptr noundef nonnull %9) #10
  br label %22

20:                                               ; preds = %3
  %21 = call noalias ptr @g_strdup(ptr noundef nonnull @.str.11) #10
  store ptr %21, ptr %2, align 8
  br label %22

22:                                               ; preds = %20, %19
  %23 = load i32, ptr %4, align 4
  ret i32 %23
}